target datalayout = "e-m:e-p270:32:32-p271:32:32-p272:64:64-i64:64-i128:128-f80:128-n8:16:32:64-S128"
target triple = "x86_64-pc-linux-gnu"

@.str = private unnamed_addr constant [35 x i8] c"../openssl/test/ec_internal_test.c\00", align 1
@.str.92 = private unnamed_addr constant [12 x i8] c"regenerated\00", align 1
@.str.93 = private unnamed_addr constant [5 x i8] c"mont\00", align 1
@.str.94 = private unnamed_addr constant [39 x i8] c"BN_MONT_CTX_set(regenerated, mod, ctx)\00", align 1
@.str.95 = private unnamed_addr constant [39 x i8] c"ossl_bn_mont_ctx_eq(regenerated, mont)\00", align 1

; Function Attrs: nounwind uwtable
define internal i32 @check_bn_mont_ctx(ptr noundef %0, ptr noundef %1, ptr noundef %2) #0 {
  %4 = alloca i32, align 4
  %5 = alloca ptr, align 8
  %6 = alloca ptr, align 8
  %7 = alloca ptr, align 8
  %8 = alloca i32, align 4
  %9 = alloca ptr, align 8
  %10 = alloca i32, align 4
  store ptr %0, ptr %5, align 8, !tbaa !54
  store ptr %1, ptr %6, align 8, !tbaa !16
  store ptr %2, ptr %7, align 8, !tbaa !12
  call void @llvm.lifetime.start.p0(i64 4, ptr %8) #4
  store i32 0, ptr %8, align 4, !tbaa !10
  call void @llvm.lifetime.start.p0(i64 8, ptr %9) #4
  %11 = call ptr @BN_MONT_CTX_new()
  store ptr %11, ptr %9, align 8, !tbaa !54
  %12 = load ptr, ptr %9, align 8, !tbaa !54
  %13 = call i32 @test_ptr(ptr noundef @.str, i32 noundef 493, ptr noundef @.str.92, ptr noundef %12)
  %14 = icmp ne i32 %13, 0
  br i1 %14, label %17, label %15

15:                                               ; preds = %3
  %16 = load i32, ptr %8, align 4, !tbaa !10
  store i32 %16, ptr %4, align 4
  store i32 1, ptr %10, align 4
  br label %45

17:                                               ; preds = %3
  %18 = load ptr, ptr %5, align 8, !tbaa !54
  %19 = call i32 @test_ptr(ptr noundef @.str, i32 noundef 495, ptr noundef @.str.93, ptr noundef %18)
  %20 = icmp ne i32 %19, 0
  br i1 %20, label %22, label %21

21:                                               ; preds = %17
  br label %42

22:                                               ; preds = %17
  %23 = load ptr, ptr %9, align 8, !tbaa !54
  %24 = load ptr, ptr %6, align 8, !tbaa !16
  %25 = load ptr, ptr %7, align 8, !tbaa !12
  %26 = call i32 @BN_MONT_CTX_set(ptr noundef %23, ptr noundef %24, ptr noundef %25)
  %27 = icmp ne i32 %26, 0
  %28 = zext i1 %27 to i32
  %29 = call i32 @test_true(ptr noundef @.str, i32 noundef 498, ptr noundef @.str.94, i32 noundef %28)
  %30 = icmp ne i32 %29, 0
  br i1 %30, label %32, label %31

31:                                               ; preds = %22
  br label %42

32:                                               ; preds = %22
  %33 = load ptr, ptr %9, align 8, !tbaa !54
  %34 = load ptr, ptr %5, align 8, !tbaa !54
  %35 = call i32 @ossl_bn_mont_ctx_eq(ptr noundef %33, ptr noundef %34)
  %36 = icmp ne i32 %35, 0
  %37 = zext i1 %36 to i32
  %38 = call i32 @test_true(ptr noundef @.str, i32 noundef 501, ptr noundef @.str.95, i32 noundef %37)
  %39 = icmp ne i32 %38, 0
  br i1 %39, label %41, label %40

40:                                               ; preds = %32
  br label %42

41:                                               ; preds = %32
  store i32 1, ptr %8, align 4, !tbaa !10
  br label %42

42:                                               ; preds = %41, %40, %31, %21
  %43 = load ptr, ptr %9, align 8, !tbaa !54
  call void @BN_MONT_CTX_free(ptr noundef %43)
  %44 = load i32, ptr %8, align 4, !tbaa !10
  store i32 %44, ptr %4, align 4
  store i32 1, ptr %10, align 4
  br label %45

45:                                               ; preds = %42, %15
  call void @llvm.lifetime.end.p0(i64 8, ptr %9) #4
  call void @llvm.lifetime.end.p0(i64 4, ptr %8) #4
  %46 = load i32, ptr %4, align 4
  ret i32 %46
}