; Function Attrs: nounwind uwtable
define internal fastcc range(i32 0, 2) i32 @check_bn_mont_ctx(ptr noundef %0, ptr noundef %1, ptr noundef %2) unnamed_addr #0 {
  %4 = tail call ptr @BN_MONT_CTX_new() #4
  %5 = tail call i32 @test_ptr(ptr noundef nonnull @.str, i32 noundef 493, ptr noundef nonnull @.str.92, ptr noundef %4) #4
  %.not = icmp eq i32 %5, 0
  br i1 %.not, label %19, label %6

6:                                                ; preds = %3
  %7 = tail call i32 @test_ptr(ptr noundef nonnull @.str, i32 noundef 495, ptr noundef nonnull @.str.93, ptr noundef %0) #4
  %.not11 = icmp eq i32 %7, 0
  br i1 %.not11, label %18, label %8

8:                                                ; preds = %6
  %9 = tail call i32 @BN_MONT_CTX_set(ptr noundef %4, ptr noundef %1, ptr noundef %2) #4
  %10 = icmp ne i32 %9, 0
  %11 = zext i1 %10 to i32
  %12 = tail call i32 @test_true(ptr noundef nonnull @.str, i32 noundef 498, ptr noundef nonnull @.str.94, i32 noundef %11) #4
  %.not12 = icmp eq i32 %12, 0
  br i1 %.not12, label %18, label %13

13:                                               ; preds = %8
  %14 = tail call i32 @ossl_bn_mont_ctx_eq(ptr noundef %4, ptr noundef %0) #4
  %15 = icmp ne i32 %14, 0
  %16 = zext i1 %15 to i32
  %17 = tail call i32 @test_true(ptr noundef nonnull @.str, i32 noundef 501, ptr noundef nonnull @.str.95, i32 noundef %16) #4
  %.not13 = icmp ne i32 %17, 0
  %spec.select = zext i1 %.not13 to i32
  br label %18

18:                                               ; preds = %13, %8, %6
  %.010 = phi i32 [ 0, %8 ], [ 0, %6 ], [ %spec.select, %13 ]
  tail call void @BN_MONT_CTX_free(ptr noundef %4) #4
  br label %19

19:                                               ; preds = %3, %18
  %.0 = phi i32 [ %.010, %18 ], [ 0, %3 ]
  ret i32 %.0
}